; Function Attrs: mustprogress nofree norecurse nosync nounwind memory(argmem: write) uwtable
define { ptr, i32 } @_ZN7xgboost6detail19ToCharsUnsignedImplEPcS1_m(ptr noundef %0, ptr noundef %1, i64 noundef %2) local_unnamed_addr #6 {
  %4 = icmp ult i64 %2, 10
  br i1 %4, label %_ZN7xgboost6detail15ShortestDigit10Em.exit, label %tailrecurse.i.preheader.i.i

tailrecurse.i.preheader.i.i:                      ; preds = %3, %tailrecurse.i18.preheader.i.i
  %.tr2227.i.i = phi i32 [ %13, %tailrecurse.i18.preheader.i.i ], [ 1, %3 ]
  %.tr26.i.i = phi i64 [ %12, %tailrecurse.i18.preheader.i.i ], [ %2, %3 ]
  %5 = icmp ult i64 %.tr26.i.i, 100
  br i1 %5, label %7, label %tailrecurse.i10.preheader.i.i

tailrecurse.i10.preheader.i.i:                    ; preds = %tailrecurse.i.preheader.i.i
  %6 = icmp ult i64 %.tr26.i.i, 1000
  br i1 %6, label %10, label %tailrecurse.i14.preheader.i.i

7:                                                ; preds = %tailrecurse.i.preheader.i.i
  %8 = add i32 %.tr2227.i.i, 1
  br label %_ZN7xgboost6detail15ShortestDigit10Em.exit

tailrecurse.i14.preheader.i.i:                    ; preds = %tailrecurse.i10.preheader.i.i
  %9 = icmp ult i64 %.tr26.i.i, 10000
  br i1 %9, label %15, label %tailrecurse.i18.preheader.i.i

10:                                               ; preds = %tailrecurse.i10.preheader.i.i
  %11 = add i32 %.tr2227.i.i, 2
  br label %_ZN7xgboost6detail15ShortestDigit10Em.exit

tailrecurse.i18.preheader.i.i:                    ; preds = %tailrecurse.i14.preheader.i.i
  %12 = udiv i64 %.tr26.i.i, 10000
  %13 = add i32 %.tr2227.i.i, 4
  %14 = icmp ult i64 %.tr26.i.i, 100000
  br i1 %14, label %_ZN7xgboost6detail15ShortestDigit10Em.exit, label %tailrecurse.i.preheader.i.i

15:                                               ; preds = %tailrecurse.i14.preheader.i.i
  %16 = add i32 %.tr2227.i.i, 3
  br label %_ZN7xgboost6detail15ShortestDigit10Em.exit

_ZN7xgboost6detail15ShortestDigit10Em.exit:       ; preds = %tailrecurse.i18.preheader.i.i, %3, %7, %10, %15
  %17 = phi i32 [ %8, %7 ], [ %11, %10 ], [ %16, %15 ], [ 1, %3 ], [ %13, %tailrecurse.i18.preheader.i.i ]
  %18 = icmp eq ptr %1, %0
  br i1 %18, label %49, label %19, !prof !13

19:                                               ; preds = %_ZN7xgboost6detail15ShortestDigit10Em.exit
  %.not.i11 = icmp ult i64 %2, 100
  br i1 %.not.i11, label %_ZN7xgboost6detail4TensEj.exit.i._crit_edge, label %tailrecurse.i19.preheader.i.preheader

tailrecurse.i19.preheader.i.preheader:            ; preds = %19
  %20 = add i32 %17, -1
  br label %tailrecurse.i19.preheader.i

tailrecurse.i19.preheader.i:                      ; preds = %tailrecurse.i19.preheader.i.preheader, %tailrecurse.i19.preheader.i
  %.0.i13 = phi i64 [ %23, %tailrecurse.i19.preheader.i ], [ %2, %tailrecurse.i19.preheader.i.preheader ]
  %.018.i12 = phi i32 [ %34, %tailrecurse.i19.preheader.i ], [ %20, %tailrecurse.i19.preheader.i.preheader ]
  %21 = urem i64 %.0.i13, 100
  %22 = shl nuw nsw i64 %21, 1
  %23 = udiv i64 %.0.i13, 100
  %24 = or disjoint i64 %22, 1
  %25 = getelementptr inbounds nuw [200 x i8], ptr @_ZN7xgboost6detailL8kItoaLutE, i64 0, i64 %24
  %26 = load i8, ptr %25, align 1, !tbaa !3
  %27 = zext i32 %.018.i12 to i64
  %28 = getelementptr inbounds nuw i8, ptr %0, i64 %27
  store i8 %26, ptr %28, align 1, !tbaa !3
  %29 = getelementptr inbounds nuw [200 x i8], ptr @_ZN7xgboost6detailL8kItoaLutE, i64 0, i64 %22
  %30 = load i8, ptr %29, align 2, !tbaa !3
  %31 = add i32 %.018.i12, -1
  %32 = zext i32 %31 to i64
  %33 = getelementptr inbounds nuw i8, ptr %0, i64 %32
  store i8 %30, ptr %33, align 1, !tbaa !3
  %34 = add i32 %.018.i12, -2
  %.not.i = icmp ult i64 %.0.i13, 10000
  br i1 %.not.i, label %_ZN7xgboost6detail4TensEj.exit.i._crit_edge, label %tailrecurse.i19.preheader.i, !llvm.loop !12

_ZN7xgboost6detail4TensEj.exit.i._crit_edge:      ; preds = %tailrecurse.i19.preheader.i, %19
  %.0.i.lcssa = phi i64 [ %2, %19 ], [ %23, %tailrecurse.i19.preheader.i ]
  %35 = icmp samesign ugt i64 %.0.i.lcssa, 9
  br i1 %35, label %36, label %44

36:                                               ; preds = %_ZN7xgboost6detail4TensEj.exit.i._crit_edge
  %37 = shl nuw nsw i64 %.0.i.lcssa, 1
  %38 = getelementptr inbounds nuw [200 x i8], ptr @_ZN7xgboost6detailL8kItoaLutE, i64 0, i64 %37
  %39 = load i8, ptr %38, align 2, !tbaa !3
  %40 = or disjoint i64 %37, 1
  %41 = getelementptr inbounds nuw [200 x i8], ptr @_ZN7xgboost6detailL8kItoaLutE, i64 0, i64 %40
  %42 = load i8, ptr %41, align 1, !tbaa !3
  %43 = getelementptr inbounds nuw i8, ptr %0, i64 1
  store i8 %42, ptr %43, align 1, !tbaa !3
  br label %_ZN7xgboost6detail16ItoaUnsignedImplEPcjm.exit

44:                                               ; preds = %_ZN7xgboost6detail4TensEj.exit.i._crit_edge
  %45 = trunc nuw i64 %.0.i.lcssa to i8
  %46 = or disjoint i8 %45, 48
  br label %_ZN7xgboost6detail16ItoaUnsignedImplEPcjm.exit

_ZN7xgboost6detail16ItoaUnsignedImplEPcjm.exit:   ; preds = %36, %44
  %.sink.i = phi i8 [ %39, %36 ], [ %46, %44 ]
  store i8 %.sink.i, ptr %0, align 1, !tbaa !3
  %47 = zext i32 %17 to i64
  %48 = getelementptr inbounds nuw i8, ptr %0, i64 %47
  br label %49

49:                                               ; preds = %_ZN7xgboost6detail15ShortestDigit10Em.exit, %_ZN7xgboost6detail16ItoaUnsignedImplEPcjm.exit
  %.sroa.0.0 = phi ptr [ %48, %_ZN7xgboost6detail16ItoaUnsignedImplEPcjm.exit ], [ %1, %_ZN7xgboost6detail15ShortestDigit10Em.exit ]
  %.sroa.3.0 = phi i32 [ 0, %_ZN7xgboost6detail16ItoaUnsignedImplEPcjm.exit ], [ 75, %_ZN7xgboost6detail15ShortestDigit10Em.exit ]
  %.fca.0.insert = insertvalue { ptr, i32 } poison, ptr %.sroa.0.0, 0
  %.fca.1.insert = insertvalue { ptr, i32 } %.fca.0.insert, i32 %.sroa.3.0, 1
  ret { ptr, i32 } %.fca.1.insert
}